; Function Attrs: cold nounwind optsize uwtable
define internal range(i32 -22, 1) i32 @init(ptr noundef %0) #2 {
  %2 = getelementptr inbounds nuw i8, ptr %0, i64 48
  %3 = load ptr, ptr %2, align 8, !tbaa !52
  %4 = load ptr, ptr %3, align 8, !tbaa !53
  %5 = getelementptr inbounds nuw i8, ptr %4, i64 16
  %6 = load ptr, ptr %5, align 8, !tbaa !15
  %7 = getelementptr inbounds nuw i8, ptr %6, i64 132
  %8 = load i32, ptr %7, align 4, !tbaa !31
  %.not = icmp eq i32 %8, 1
  br i1 %.not, label %10, label %9

9:                                                ; preds = %1
  tail call void (ptr, i32, ptr, ...) @av_log(ptr noundef nonnull %0, i32 noundef 16, ptr noundef nonnull @.str.7) #7
  br label %13

10:                                               ; preds = %1
  %11 = getelementptr inbounds nuw i8, ptr %6, i64 56
  store i32 16, ptr %11, align 8, !tbaa !55
  %12 = getelementptr inbounds nuw i8, ptr %6, i64 156
  store i32 2, ptr %12, align 4, !tbaa !30
  br label %13

13:                                               ; preds = %10, %9
  %.0 = phi i32 [ -22, %9 ], [ 0, %10 ]
  ret i32 %.0
}